; Function Attrs: mustprogress uwtable
define hidden noundef zeroext i1 @_ZN3smt13quick_checker7any_argEP3appb(ptr noundef nonnull align 8 dereferenceable(184) %0, ptr noundef readonly captures(none) %1, i1 noundef zeroext %2) local_unnamed_addr #4 align 2 {
  %4 = getelementptr inbounds nuw i8, ptr %1, i64 24
  %5 = load i32, ptr %4, align 8, !tbaa !566
  %.not11.not = icmp eq i32 %5, 0
  br i1 %.not11.not, label %.critedge, label %.lr.ph

.lr.ph:                                           ; preds = %3
  %6 = getelementptr inbounds nuw i8, ptr %1, i64 32
  %wide.trip.count = zext i32 %5 to i64
  br label %7

7:                                                ; preds = %7, %.lr.ph
  %indvars.iv = phi i64 [ 0, %.lr.ph ], [ %indvars.iv.next, %7 ]
  %8 = getelementptr inbounds nuw [0 x ptr], ptr %6, i64 0, i64 %indvars.iv
  %9 = load ptr, ptr %8, align 8, !tbaa !571
  %10 = tail call noundef zeroext i1 @_ZN3smt13quick_checker5checkEP4exprb(ptr noundef nonnull align 8 dereferenceable(184) %0, ptr noundef %9, i1 noundef zeroext %2)
  %indvars.iv.next = add nuw nsw i64 %indvars.iv, 1
  %exitcond.not = icmp eq i64 %indvars.iv.next, %wide.trip.count
  %or.cond = select i1 %10, i1 true, i1 %exitcond.not
  br i1 %or.cond, label %.critedge, label %7, !llvm.loop !656

.critedge:                                        ; preds = %7, %3
  %.not.lcssa = phi i1 [ false, %3 ], [ %10, %7 ]
  ret i1 %.not.lcssa
}